Certificate:
    Data:
        Version: 1 (0x0)
        Serial Number: 1 (0x1)
        Signature Algorithm: md5WithRSAEncryption
        Issuer: C=UA, ST=Some-State, O=Internet Widgits Pty Ltd
        Validity
            Not Before: Jan  2 14:51:41 2021 GMT
            Not After : Jan  2 14:51:41 2022 GMT
        Subject: C=UA, ST=Some-State, O=Internet Widgits Pty Ltd, CN=localhost
        Subject Public Key Info:
            Public Key Algorithm: rsaEncryption
                RSA Public-Key: (4096 bit)
                Modulus:
                    00:b2:8d:9e:a2:c8:cc:88:4f:35:dc:52:e1:a6:ff:
                    38:64:77:36:70:39:2d:73:71:6f:db:b7:ae:9a:93:
                    b6:7f:bc:d8:ba:d2:fc:4b:f0:54:14:87:b9:3b:5d:
                    db:96:ba:d6:8e:e6:a7:af:62:7a:8d:fe:e3:b7:7f:
                    b6:8e:35:d2:86:d4:8f:97:ba:15:14:9c:1f:12:5f:
                    67:c0:52:9f:e9:64:f2:fb:09:62:bc:e6:4d:a0:c1:
                    ae:99:f7:4a:2d:85:9d:73:cb:ff:6d:52:8f:2b:15:
                    96:80:9a:06:51:65:eb:c1:fd:a1:02:8d:40:c1:8e:
                    be:ea:40:61:11:f9:a5:2e:38:2c:0a:2e:09:52:b1:
                    8b:5e:72:e0:16:65:fa:fe:b4:40:89:79:d1:80:3f:
                    b0:1a:65:19:09:87:7c:8f:f3:cd:b2:36:14:d6:ef:
                    ef:e8:ac:d0:25:28:5b:6d:10:83:3c:98:fd:74:9b:
                    df:a3:3b:58:62:0e:bf:6d:29:16:bf:57:f1:45:97:
                    ef:2c:7d:8c:0d:d3:80:36:0e:4f:f7:cf:8e:c8:d5:
                    81:ef:35:ad:d2:8f:a8:be:bf:2d:f3:0e:5c:aa:dc:
                    f7:b2:05:8c:85:13:5a:bc:fd:fd:36:63:a1:e1:0d:
                    0e:8a:31:2a:aa:52:13:51:d5:b4:27:6e:b4:ca:f5:
                    f5:3f:e3:85:09:62:fd:48:eb:d4:f0:54:c7:5c:9d:
                    2c:6c:bb:42:c0:1d:8b:8c:52:19:55:b8:ce:7c:5d:
                    f3:0f:cf:dc:cb:bb:58:d8:fb:a1:e4:af:24:89:3d:
                    78:96:57:f5:a6:17:cc:89:94:35:85:a5:a5:3e:d4:
                    51:97:4f:6a:22:af:f1:f8:5e:df:29:81:23:22:e7:
                    3f:42:43:d7:fc:af:13:a2:55:49:72:b9:41:5b:ce:
                    be:20:6c:c1:25:64:9b:7b:f1:30:dc:cf:4a:3b:0b:
                    85:29:04:ad:ff:7b:c6:ce:b6:28:d1:46:06:e8:1a:
                    a9:be:f7:c9:bf:7b:f7:d9:87:6c:c9:b6:97:e6:e6:
                    80:48:35:7a:b5:6f:57:77:f0:02:40:de:bd:84:78:
                    ee:8b:92:8d:77:7d:26:fe:4b:a4:be:8a:51:5c:99:
                    75:40:cd:d8:f3:51:eb:03:a8:9a:a1:4e:00:90:aa:
                    21:44:53:a1:b6:c3:b8:46:b3:8a:74:c5:30:1d:ee:
                    fb:4a:18:a9:74:1d:21:3c:d0:4e:58:ce:65:d0:bd:
                    56:b6:c0:6b:63:46:9c:cb:6e:20:09:83:15:1d:73:
                    73:dc:31:53:bc:72:f3:f9:43:32:74:7d:3c:9f:f0:
                    44:42:fe:e3:5a:6b:b4:d3:2d:e3:8c:b6:c8:62:a9:
                    3a:19:db
                Exponent: 65537 (0x10001)
    Signature Algorithm: md5WithRSAEncryption
         18:72:28:77:8e:3a:c5:4b:31:94:43:43:1a:5a:8b:7e:17:c9:
         70:73:06:c6:29:0a:77:35:d3:e5:47:6d:d1:9c:25:f4:57:17:
         29:7c:6c:92:ac:52:84:c0:8f:1c:16:ba:66:66:af:1a:8b:3a:
         78:5d:ae:57:07:fe:c9:58:cf:8a:b1:45:f5:15:7f:dd:2c:b5:
         56:fa:60:c2:58:99:29:5f:32:94:fc:5c:37:b6:97:9c:35:79:
         19:82:51:af:9b:19:21:8e:6c:02:38:42:34:06:f9:60:75:77:
         dc:59:cd:a1:1f:4d:26:2b:d0:7a:f0:81:77:58:fe:5b:75:e4:
         27:44:27:9b:79:b8:24:6a:43:44:12:16:2a:7e:32:7c:22:d7:
         2e:68:50:2f:70:5b:ef:50:58:70:0f:40:e6:a9:0e:9c:2a:95:
         d6:36:9b:ab:b9:c9:ed:fc:da:b9:41:cd:56:e0:09:c1:49:3d:
         a8:9d:31:f1:6c:db:78:ad:53:d5:36:1c:8d:16:06:b5:75:b2:
         38:77:c3:14:c4:70:20:b1:7f:3d:0e:fe:dc:0b:a7:31:3d:ab:
         f6:16:e6:6a:61:60:6e:2d:9e:5f:28:5c:bc:12:07:6c:7c:fc:
         98:46:e7:be:d6:88:13:96:3e:14:da:d9:aa:21:43:57:88:ea:
         0a:08:31:e7:44:8e:9b:97:c2:b4:f2:ec:50:8a:88:44:bd:25:
         60:31:fa:9c:5c:44:94:18:e7:ee:12:91:15:af:35:92:54:c3:
         08:8c:08:73:d5:6f:fe:96:3b:51:cf:2b:22:20:78:b2:2d:39:
         6c:9e:f7:df:be:4f:c5:23:6b:85:32:8c:77:21:4b:98:ef:92:
         07:f9:a1:e7:8f:8f:62:c2:2c:38:29:f3:42:cf:e9:a6:fa:c8:
         94:13:a6:17:b9:ec:e1:23:65:bd:7f:53:6f:87:d0:08:10:26:
         d9:c2:a9:27:5d:90:24:12:53:2e:4c:d3:6c:fc:f5:de:4a:a1:
         b3:14:d9:16:97:62:3f:aa:bd:c8:b3:33:2c:ff:cd:0b:1a:3d:
         46:4f:24:05:1a:da:46:f6:5f:25:ac:29:4d:6b:3d:7f:9b:b2:
         38:fa:16:1c:1a:b6:67:ff:59:6b:7a:8d:db:2c:3c:6a:81:df:
         e4:0b:e1:e6:5b:60:67:b5:69:0a:55:b7:9e:6f:f8:13:fa:46:
         38:d0:1c:9e:2c:b7:ed:d1:0d:d1:8e:d0:3d:5b:f9:c5:70:92:
         57:20:f5:fb:3b:81:7a:8e:89:22:ad:94:02:58:56:29:a6:97:
         e2:0a:bf:1a:00:3b:1c:dc:e7:32:83:05:be:f4:d8:fe:d4:05:
         c5:47:df:ef:76:b2:8d:60
-----BEGIN CERTIFICATE-----
MIIFEjCCAvoCAQEwDQYJKoZIhvcNAQEEBQAwRTELMAkGA1UEBhMCVUExEzARBgNV
BAgMClNvbWUtU3RhdGUxITAfBgNVBAoMGEludGVybmV0IFdpZGdpdHMgUHR5IEx0
ZDAeFw0yMTAxMDIxNDUxNDFaFw0yMjAxMDIxNDUxNDFaMFkxCzAJBgNVBAYTAlVB
MRMwEQYDVQQIDApTb21lLVN0YXRlMSEwHwYDVQQKDBhJbnRlcm5ldCBXaWRnaXRz
IFB0eSBMdGQxEjAQBgNVBAMMCWxvY2FsaG9zdDCCAiIwDQYJKoZIhvcNAQEBBQAD
ggIPADCCAgoCggIBALKNnqLIzIhPNdxS4ab/OGR3NnA5LXNxb9u3rpqTtn+82LrS
/EvwVBSHuTtd25a61o7mp69ieo3+47d/to410obUj5e6FRScHxJfZ8BSn+lk8vsJ
YrzmTaDBrpn3Si2FnXPL/21SjysVloCaBlFl68H9oQKNQMGOvupAYRH5pS44LAou
CVKxi15y4BZl+v60QIl50YA/sBplGQmHfI/zzbI2FNbv7+is0CUoW20QgzyY/XSb
36M7WGIOv20pFr9X8UWX7yx9jA3TgDYOT/fPjsjVge81rdKPqL6/LfMOXKrc97IF
jIUTWrz9/TZjoeENDooxKqpSE1HVtCdutMr19T/jhQli/Ujr1PBUx1ydLGy7QsAd
i4xSGVW4znxd8w/P3Mu7WNj7oeSvJIk9eJZX9aYXzImUNYWlpT7UUZdPaiKv8fhe
3ymBIyLnP0JD1/yvE6JVSXK5QVvOviBswSVkm3vxMNzPSjsLhSkErf97xs62KNFG
Bugaqb73yb9799mHbMm2l+bmgEg1erVvV3fwAkDevYR47ouSjXd9Jv5LpL6KUVyZ
dUDN2PNR6wOomqFOAJCqIURTobbDuEazinTFMB3u+0oYqXQdITzQTljOZdC9VrbA
a2NGnMtuIAmDFR1zc9wxU7xy8/lDMnR9PJ/wREL+41prtNMt44y2yGKpOhnbAgMB
AAEwDQYJKoZIhvcNAQEEBQADggIBABhyKHeOOsVLMZRDQxpai34XyXBzBsYpCnc1
0+VHbdGcJfRXFyl8bJKsUoTAjxwWumZmrxqLOnhdrlcH/slYz4qxRfUVf90stVb6
YMJYmSlfMpT8XDe2l5w1eRmCUa+bGSGObAI4QjQG+WB1d9xZzaEfTSYr0HrwgXdY
/lt15CdEJ5t5uCRqQ0QSFip+Mnwi1y5oUC9wW+9QWHAPQOapDpwqldY2m6u5ye38
2rlBzVbgCcFJPaidMfFs23itU9U2HI0WBrV1sjh3wxTEcCCxfz0O/twLpzE9q/YW
5mphYG4tnl8oXLwSB2x8/JhG577WiBOWPhTa2aohQ1eI6goIMedEjpuXwrTy7FCK
iES9JWAx+pxcRJQY5+4SkRWvNZJUwwiMCHPVb/6WO1HPKyIgeLItOWye99++T8Uj
a4UyjHchS5jvkgf5oeePj2LCLDgp80LP6ab6yJQTphe57OEjZb1/U2+H0AgQJtnC
qSddkCQSUy5M02z89d5KobMU2RaXYj+qvcizMyz/zQsaPUZPJAUa2kb2XyWsKU1r
PX+bsjj6Fhwatmf/WWt6jdssPGqB3+QL4eZbYGe1aQpVt55v+BP6RjjQHJ4st+3R
DdGO0D1b+cVwklcg9fs7gXqOiSKtlAJYVimml+IKvxoAOxzc5zKDBb702P7UBcVH
3+92so1g
-----END CERTIFICATE-----
